target datalayout = "e-m:e-p270:32:32-p271:32:32-p272:64:64-i64:64-i128:128-f80:128-n8:16:32:64-S128"
target triple = "x86_64-unknown-linux-gnu"

%struct.alts_grpc_handshaker_client = type { %struct.alts_handshaker_client, %struct.gpr_refcount, ptr, ptr, ptr, %struct.grpc_closure, ptr, ptr, i8, %struct.grpc_metadata_array, ptr, ptr, ptr, %struct.grpc_slice, i8, %struct.grpc_slice, ptr, i64, %struct.grpc_closure, i32, %struct.grpc_slice, %"class.absl::lts_20230802::Mutex", i8, ptr, i64, ptr }
%struct.alts_handshaker_client = type { ptr }
%struct.gpr_refcount = type { i64 }
%struct.grpc_metadata_array = type { i64, i64, ptr }
%struct.grpc_closure = type { %union.anon, ptr, ptr, %union.anon.0 }
%union.anon = type { ptr }
%union.anon.0 = type { i64 }
%struct.grpc_slice = type { ptr, %"union.grpc_slice::grpc_slice_data" }
%"union.grpc_slice::grpc_slice_data" = type { %"struct.grpc_slice::grpc_slice_data::grpc_slice_refcounted", [8 x i8] }
%"struct.grpc_slice::grpc_slice_data::grpc_slice_refcounted" = type { i64, ptr }
%"class.absl::lts_20230802::Mutex" = type { %"struct.std::atomic" }
%"struct.std::atomic" = type { %"struct.std::__atomic_base" }
%"struct.std::__atomic_base" = type { i64 }
%struct.grpc_op = type { i32, i32, ptr, %"union.grpc_op::grpc_op_data" }
%"union.grpc_op::grpc_op_data" = type { %struct.anon }
%struct.anon = type { [8 x ptr] }
%"struct.grpc_op::grpc_op_data::grpc_op_recv_status_on_client" = type { ptr, ptr, ptr, ptr }
%"struct.grpc_op::grpc_op_data::grpc_op_send_initial_metadata" = type { i64, ptr, %"struct.grpc_op::grpc_op_data::grpc_op_send_initial_metadata::grpc_op_send_initial_metadata_maybe_compression_level" }
%"struct.grpc_op::grpc_op_data::grpc_op_send_initial_metadata::grpc_op_send_initial_metadata_maybe_compression_level" = type { i8, i32 }
%"struct.grpc_op::grpc_op_data::grpc_op_recv_initial_metadata" = type { ptr }
%"struct.grpc_op::grpc_op_data::grpc_op_send_message" = type { ptr }
%"struct.grpc_op::grpc_op_data::grpc_op_recv_message" = type { ptr }

@.str = private unnamed_addr constant [142 x i8] c"generated/home/dtcxzyw/WorkSpace/Projects/compilers/llvm-opt-benchmark/bench/grpc/grpc/src/core/tsi/alts/handshaker/alts_handshaker_client.cc\00", align 1
@.str.32 = private unnamed_addr constant [18 x i8] c"client != nullptr\00", align 1
@.str.33 = private unnamed_addr constant [35 x i8] c"op - ops <= kHandshakerClientOpNum\00", align 1
@.str.34 = private unnamed_addr constant [27 x i8] c"call_error == GRPC_CALL_OK\00", align 1
@.str.35 = private unnamed_addr constant [31 x i8] c"client->grpc_caller != nullptr\00", align 1
@.str.36 = private unnamed_addr constant [29 x i8] c"Start batch operation failed\00", align 1

; Function Attrs: mustprogress uwtable
define internal noundef i32 @_ZL23continue_make_grpc_callP27alts_grpc_handshaker_clientb(ptr noundef %client, i1 noundef zeroext %is_start) #4 {
entry:
  %retval = alloca i32, align 4
  %client.addr = alloca ptr, align 8
  %is_start.addr = alloca i8, align 1
  %ops = alloca [4 x %struct.grpc_op], align 16
  %op = alloca ptr, align 8
  %call_error = alloca i32, align 4
  store ptr %client, ptr %client.addr, align 8
  %frombool = zext i1 %is_start to i8
  store i8 %frombool, ptr %is_start.addr, align 1
  br label %do.body

do.body:                                          ; preds = %entry
  %0 = load ptr, ptr %client.addr, align 8
  %cmp = icmp ne ptr %0, null
  %lnot = xor i1 %cmp, true
  br i1 %lnot, label %if.then, label %if.end

if.then:                                          ; preds = %do.body
  call void @gpr_assertion_failed(ptr noundef @.str, i32 noundef 316, ptr noundef @.str.32) #16
  unreachable

if.end:                                           ; preds = %do.body
  br label %do.end

do.end:                                           ; preds = %if.end
  %arraydecay = getelementptr inbounds [4 x %struct.grpc_op], ptr %ops, i64 0, i64 0
  call void @llvm.memset.p0.i64(ptr align 16 %arraydecay, i8 0, i64 320, i1 false)
  %arraydecay1 = getelementptr inbounds [4 x %struct.grpc_op], ptr %ops, i64 0, i64 0
  store ptr %arraydecay1, ptr %op, align 8
  %1 = load i8, ptr %is_start.addr, align 1
  %tobool = trunc i8 %1 to i1
  br i1 %tobool, label %if.then2, label %if.end57

if.then2:                                         ; preds = %do.end
  %2 = load ptr, ptr %op, align 8
  %op3 = getelementptr inbounds %struct.grpc_op, ptr %2, i32 0, i32 0
  store i32 6, ptr %op3, align 8
  %3 = load ptr, ptr %op, align 8
  %data = getelementptr inbounds %struct.grpc_op, ptr %3, i32 0, i32 3
  %trailing_metadata = getelementptr inbounds %"struct.grpc_op::grpc_op_data::grpc_op_recv_status_on_client", ptr %data, i32 0, i32 0
  store ptr null, ptr %trailing_metadata, align 8
  %4 = load ptr, ptr %client.addr, align 8
  %handshake_status_code = getelementptr inbounds %struct.alts_grpc_handshaker_client, ptr %4, i32 0, i32 19
  %5 = load ptr, ptr %op, align 8
  %data4 = getelementptr inbounds %struct.grpc_op, ptr %5, i32 0, i32 3
  %status = getelementptr inbounds %"struct.grpc_op::grpc_op_data::grpc_op_recv_status_on_client", ptr %data4, i32 0, i32 1
  store ptr %handshake_status_code, ptr %status, align 8
  %6 = load ptr, ptr %client.addr, align 8
  %handshake_status_details = getelementptr inbounds %struct.alts_grpc_handshaker_client, ptr %6, i32 0, i32 20
  %7 = load ptr, ptr %op, align 8
  %data5 = getelementptr inbounds %struct.grpc_op, ptr %7, i32 0, i32 3
  %status_details = getelementptr inbounds %"struct.grpc_op::grpc_op_data::grpc_op_recv_status_on_client", ptr %data5, i32 0, i32 2
  store ptr %handshake_status_details, ptr %status_details, align 8
  %8 = load ptr, ptr %op, align 8
  %flags = getelementptr inbounds %struct.grpc_op, ptr %8, i32 0, i32 1
  store i32 0, ptr %flags, align 4
  %9 = load ptr, ptr %op, align 8
  %reserved = getelementptr inbounds %struct.grpc_op, ptr %9, i32 0, i32 2
  store ptr null, ptr %reserved, align 8
  %10 = load ptr, ptr %op, align 8
  %incdec.ptr = getelementptr inbounds %struct.grpc_op, ptr %10, i32 1
  store ptr %incdec.ptr, ptr %op, align 8
  br label %do.body6

do.body6:                                         ; preds = %if.then2
  %11 = load ptr, ptr %op, align 8
  %arraydecay7 = getelementptr inbounds [4 x %struct.grpc_op], ptr %ops, i64 0, i64 0
  %sub.ptr.lhs.cast = ptrtoint ptr %11 to i64
  %sub.ptr.rhs.cast = ptrtoint ptr %arraydecay7 to i64
  %sub.ptr.sub = sub i64 %sub.ptr.lhs.cast, %sub.ptr.rhs.cast
  %sub.ptr.div = sdiv exact i64 %sub.ptr.sub, 80
  %cmp8 = icmp sle i64 %sub.ptr.div, 4
  %lnot9 = xor i1 %cmp8, true
  br i1 %lnot9, label %if.then10, label %if.end11

if.then10:                                        ; preds = %do.body6
  call void @gpr_assertion_failed(ptr noundef @.str, i32 noundef 329, ptr noundef @.str.33) #16
  unreachable

if.end11:                                         ; preds = %do.body6
  br label %do.end12

do.end12:                                         ; preds = %if.end11
  %12 = load ptr, ptr %client.addr, align 8
  %refs = getelementptr inbounds %struct.alts_grpc_handshaker_client, ptr %12, i32 0, i32 1
  call void @gpr_ref(ptr noundef %refs)
  %13 = load ptr, ptr %client.addr, align 8
  %grpc_caller = getelementptr inbounds %struct.alts_grpc_handshaker_client, ptr %13, i32 0, i32 4
  %14 = load ptr, ptr %grpc_caller, align 8
  %15 = load ptr, ptr %client.addr, align 8
  %call = getelementptr inbounds %struct.alts_grpc_handshaker_client, ptr %15, i32 0, i32 3
  %16 = load ptr, ptr %call, align 8
  %arraydecay13 = getelementptr inbounds [4 x %struct.grpc_op], ptr %ops, i64 0, i64 0
  %17 = load ptr, ptr %op, align 8
  %arraydecay14 = getelementptr inbounds [4 x %struct.grpc_op], ptr %ops, i64 0, i64 0
  %sub.ptr.lhs.cast15 = ptrtoint ptr %17 to i64
  %sub.ptr.rhs.cast16 = ptrtoint ptr %arraydecay14 to i64
  %sub.ptr.sub17 = sub i64 %sub.ptr.lhs.cast15, %sub.ptr.rhs.cast16
  %sub.ptr.div18 = sdiv exact i64 %sub.ptr.sub17, 80
  %18 = load ptr, ptr %client.addr, align 8
  %on_status_received = getelementptr inbounds %struct.alts_grpc_handshaker_client, ptr %18, i32 0, i32 18
  %call19 = call noundef i32 %14(ptr noundef %16, ptr noundef %arraydecay13, i64 noundef %sub.ptr.div18, ptr noundef %on_status_received)
  store i32 %call19, ptr %call_error, align 4
  br label %do.body20

do.body20:                                        ; preds = %do.end12
  %19 = load i32, ptr %call_error, align 4
  %cmp21 = icmp eq i32 %19, 0
  %lnot22 = xor i1 %cmp21, true
  br i1 %lnot22, label %if.then23, label %if.end24

if.then23:                                        ; preds = %do.body20
  call void @gpr_assertion_failed(ptr noundef @.str, i32 noundef 335, ptr noundef @.str.34) #16
  unreachable

if.end24:                                         ; preds = %do.body20
  br label %do.end25

do.end25:                                         ; preds = %if.end24
  %arraydecay26 = getelementptr inbounds [4 x %struct.grpc_op], ptr %ops, i64 0, i64 0
  call void @llvm.memset.p0.i64(ptr align 16 %arraydecay26, i8 0, i64 320, i1 false)
  %arraydecay27 = getelementptr inbounds [4 x %struct.grpc_op], ptr %ops, i64 0, i64 0
  store ptr %arraydecay27, ptr %op, align 8
  %20 = load ptr, ptr %op, align 8
  %op28 = getelementptr inbounds %struct.grpc_op, ptr %20, i32 0, i32 0
  store i32 0, ptr %op28, align 8
  %21 = load ptr, ptr %op, align 8
  %data29 = getelementptr inbounds %struct.grpc_op, ptr %21, i32 0, i32 3
  %count = getelementptr inbounds %"struct.grpc_op::grpc_op_data::grpc_op_send_initial_metadata", ptr %data29, i32 0, i32 0
  store i64 0, ptr %count, align 8
  %22 = load ptr, ptr %op, align 8
  %incdec.ptr30 = getelementptr inbounds %struct.grpc_op, ptr %22, i32 1
  store ptr %incdec.ptr30, ptr %op, align 8
  br label %do.body31

do.body31:                                        ; preds = %do.end25
  %23 = load ptr, ptr %op, align 8
  %arraydecay32 = getelementptr inbounds [4 x %struct.grpc_op], ptr %ops, i64 0, i64 0
  %sub.ptr.lhs.cast33 = ptrtoint ptr %23 to i64
  %sub.ptr.rhs.cast34 = ptrtoint ptr %arraydecay32 to i64
  %sub.ptr.sub35 = sub i64 %sub.ptr.lhs.cast33, %sub.ptr.rhs.cast34
  %sub.ptr.div36 = sdiv exact i64 %sub.ptr.sub35, 80
  %cmp37 = icmp sle i64 %sub.ptr.div36, 4
  %lnot38 = xor i1 %cmp37, true
  br i1 %lnot38, label %if.then39, label %if.end40

if.then39:                                        ; preds = %do.body31
  call void @gpr_assertion_failed(ptr noundef @.str, i32 noundef 341, ptr noundef @.str.33) #16
  unreachable

if.end40:                                         ; preds = %do.body31
  br label %do.end41

do.end41:                                         ; preds = %if.end40
  %24 = load ptr, ptr %op, align 8
  %op42 = getelementptr inbounds %struct.grpc_op, ptr %24, i32 0, i32 0
  store i32 4, ptr %op42, align 8
  %25 = load ptr, ptr %client.addr, align 8
  %recv_initial_metadata = getelementptr inbounds %struct.alts_grpc_handshaker_client, ptr %25, i32 0, i32 9
  %26 = load ptr, ptr %op, align 8
  %data43 = getelementptr inbounds %struct.grpc_op, ptr %26, i32 0, i32 3
  %recv_initial_metadata44 = getelementptr inbounds %"struct.grpc_op::grpc_op_data::grpc_op_recv_initial_metadata", ptr %data43, i32 0, i32 0
  store ptr %recv_initial_metadata, ptr %recv_initial_metadata44, align 8
  %27 = load ptr, ptr %op, align 8
  %incdec.ptr45 = getelementptr inbounds %struct.grpc_op, ptr %27, i32 1
  store ptr %incdec.ptr45, ptr %op, align 8
  br label %do.body46

do.body46:                                        ; preds = %do.end41
  %28 = load ptr, ptr %op, align 8
  %arraydecay47 = getelementptr inbounds [4 x %struct.grpc_op], ptr %ops, i64 0, i64 0
  %sub.ptr.lhs.cast48 = ptrtoint ptr %28 to i64
  %sub.ptr.rhs.cast49 = ptrtoint ptr %arraydecay47 to i64
  %sub.ptr.sub50 = sub i64 %sub.ptr.lhs.cast48, %sub.ptr.rhs.cast49
  %sub.ptr.div51 = sdiv exact i64 %sub.ptr.sub50, 80
  %cmp52 = icmp sle i64 %sub.ptr.div51, 4
  %lnot53 = xor i1 %cmp52, true
  br i1 %lnot53, label %if.then54, label %if.end55

if.then54:                                        ; preds = %do.body46
  call void @gpr_assertion_failed(ptr noundef @.str, i32 noundef 346, ptr noundef @.str.33) #16
  unreachable

if.end55:                                         ; preds = %do.body46
  br label %do.end56

do.end56:                                         ; preds = %if.end55
  br label %if.end57

if.end57:                                         ; preds = %do.end56, %do.end
  %29 = load ptr, ptr %op, align 8
  %op58 = getelementptr inbounds %struct.grpc_op, ptr %29, i32 0, i32 0
  store i32 1, ptr %op58, align 8
  %30 = load ptr, ptr %client.addr, align 8
  %send_buffer = getelementptr inbounds %struct.alts_grpc_handshaker_client, ptr %30, i32 0, i32 6
  %31 = load ptr, ptr %send_buffer, align 8
  %32 = load ptr, ptr %op, align 8
  %data59 = getelementptr inbounds %struct.grpc_op, ptr %32, i32 0, i32 3
  %send_message = getelementptr inbounds %"struct.grpc_op::grpc_op_data::grpc_op_send_message", ptr %data59, i32 0, i32 0
  store ptr %31, ptr %send_message, align 8
  %33 = load ptr, ptr %op, align 8
  %incdec.ptr60 = getelementptr inbounds %struct.grpc_op, ptr %33, i32 1
  store ptr %incdec.ptr60, ptr %op, align 8
  br label %do.body61

do.body61:                                        ; preds = %if.end57
  %34 = load ptr, ptr %op, align 8
  %arraydecay62 = getelementptr inbounds [4 x %struct.grpc_op], ptr %ops, i64 0, i64 0
  %sub.ptr.lhs.cast63 = ptrtoint ptr %34 to i64
  %sub.ptr.rhs.cast64 = ptrtoint ptr %arraydecay62 to i64
  %sub.ptr.sub65 = sub i64 %sub.ptr.lhs.cast63, %sub.ptr.rhs.cast64
  %sub.ptr.div66 = sdiv exact i64 %sub.ptr.sub65, 80
  %cmp67 = icmp sle i64 %sub.ptr.div66, 4
  %lnot68 = xor i1 %cmp67, true
  br i1 %lnot68, label %if.then69, label %if.end70

if.then69:                                        ; preds = %do.body61
  call void @gpr_assertion_failed(ptr noundef @.str, i32 noundef 351, ptr noundef @.str.33) #16
  unreachable

if.end70:                                         ; preds = %do.body61
  br label %do.end71

do.end71:                                         ; preds = %if.end70
  %35 = load ptr, ptr %op, align 8
  %op72 = getelementptr inbounds %struct.grpc_op, ptr %35, i32 0, i32 0
  store i32 5, ptr %op72, align 8
  %36 = load ptr, ptr %client.addr, align 8
  %recv_buffer = getelementptr inbounds %struct.alts_grpc_handshaker_client, ptr %36, i32 0, i32 7
  %37 = load ptr, ptr %op, align 8
  %data73 = getelementptr inbounds %struct.grpc_op, ptr %37, i32 0, i32 3
  %recv_message = getelementptr inbounds %"struct.grpc_op::grpc_op_data::grpc_op_recv_message", ptr %data73, i32 0, i32 0
  store ptr %recv_buffer, ptr %recv_message, align 8
  %38 = load ptr, ptr %op, align 8
  %incdec.ptr74 = getelementptr inbounds %struct.grpc_op, ptr %38, i32 1
  store ptr %incdec.ptr74, ptr %op, align 8
  br label %do.body75

do.body75:                                        ; preds = %do.end71
  %39 = load ptr, ptr %op, align 8
  %arraydecay76 = getelementptr inbounds [4 x %struct.grpc_op], ptr %ops, i64 0, i64 0
  %sub.ptr.lhs.cast77 = ptrtoint ptr %39 to i64
  %sub.ptr.rhs.cast78 = ptrtoint ptr %arraydecay76 to i64
  %sub.ptr.sub79 = sub i64 %sub.ptr.lhs.cast77, %sub.ptr.rhs.cast78
  %sub.ptr.div80 = sdiv exact i64 %sub.ptr.sub79, 80
  %cmp81 = icmp sle i64 %sub.ptr.div80, 4
  %lnot82 = xor i1 %cmp81, true
  br i1 %lnot82, label %if.then83, label %if.end84

if.then83:                                        ; preds = %do.body75
  call void @gpr_assertion_failed(ptr noundef @.str, i32 noundef 355, ptr noundef @.str.33) #16
  unreachable

if.end84:                                         ; preds = %do.body75
  br label %do.end85

do.end85:                                         ; preds = %if.end84
  br label %do.body86

do.body86:                                        ; preds = %do.end85
  %40 = load ptr, ptr %client.addr, align 8
  %grpc_caller87 = getelementptr inbounds %struct.alts_grpc_handshaker_client, ptr %40, i32 0, i32 4
  %41 = load ptr, ptr %grpc_caller87, align 8
  %cmp88 = icmp ne ptr %41, null
  %lnot89 = xor i1 %cmp88, true
  br i1 %lnot89, label %if.then90, label %if.end91

if.then90:                                        ; preds = %do.body86
  call void @gpr_assertion_failed(ptr noundef @.str, i32 noundef 356, ptr noundef @.str.35) #16
  unreachable

if.end91:                                         ; preds = %do.body86
  br label %do.end92

do.end92:                                         ; preds = %if.end91
  %42 = load ptr, ptr %client.addr, align 8
  %grpc_caller93 = getelementptr inbounds %struct.alts_grpc_handshaker_client, ptr %42, i32 0, i32 4
  %43 = load ptr, ptr %grpc_caller93, align 8
  %44 = load ptr, ptr %client.addr, align 8
  %call94 = getelementptr inbounds %struct.alts_grpc_handshaker_client, ptr %44, i32 0, i32 3
  %45 = load ptr, ptr %call94, align 8
  %arraydecay95 = getelementptr inbounds [4 x %struct.grpc_op], ptr %ops, i64 0, i64 0
  %46 = load ptr, ptr %op, align 8
  %arraydecay96 = getelementptr inbounds [4 x %struct.grpc_op], ptr %ops, i64 0, i64 0
  %sub.ptr.lhs.cast97 = ptrtoint ptr %46 to i64
  %sub.ptr.rhs.cast98 = ptrtoint ptr %arraydecay96 to i64
  %sub.ptr.sub99 = sub i64 %sub.ptr.lhs.cast97, %sub.ptr.rhs.cast98
  %sub.ptr.div100 = sdiv exact i64 %sub.ptr.sub99, 80
  %47 = load ptr, ptr %client.addr, align 8
  %on_handshaker_service_resp_recv = getelementptr inbounds %struct.alts_grpc_handshaker_client, ptr %47, i32 0, i32 5
  %call101 = call noundef i32 %43(ptr noundef %45, ptr noundef %arraydecay95, i64 noundef %sub.ptr.div100, ptr noundef %on_handshaker_service_resp_recv)
  %cmp102 = icmp ne i32 %call101, 0
  br i1 %cmp102, label %if.then103, label %if.end104

if.then103:                                       ; preds = %do.end92
  call void (ptr, i32, i32, ptr, ...) @gpr_log(ptr noundef @.str, i32 noundef 360, i32 noundef 2, ptr noundef @.str.36)
  store i32 7, ptr %retval, align 4
  br label %return

if.end104:                                        ; preds = %do.end92
  store i32 0, ptr %retval, align 4
  br label %return

return:                                           ; preds = %if.end104, %if.then103
  %48 = load i32, ptr %retval, align 4
  ret i32 %48
}