; Function Attrs: mustprogress uwtable
define internal fastcc noundef i32 @_ZL23continue_make_grpc_callP27alts_grpc_handshaker_clientb(ptr noundef %client, i1 noundef zeroext %is_start) unnamed_addr #3 {
entry:
  %ops = alloca [4 x %struct.grpc_op], align 16
  %cmp.not = icmp eq ptr %client, null
  br i1 %cmp.not, label %if.then, label %do.end

if.then:                                          ; preds = %entry
  tail call void @gpr_assertion_failed(ptr noundef nonnull @.str, i32 noundef 316, ptr noundef nonnull @.str.32) #17
  unreachable

do.end:                                           ; preds = %entry
  call void @llvm.memset.p0.i64(ptr noundef nonnull align 16 dereferenceable(320) %ops, i8 0, i64 320, i1 false)
  br i1 %is_start, label %if.then2, label %if.end57

if.then2:                                         ; preds = %do.end
  store i32 6, ptr %ops, align 16
  %handshake_status_code = getelementptr inbounds i8, ptr %client, i64 264
  %status = getelementptr inbounds i8, ptr %ops, i64 24
  store ptr %handshake_status_code, ptr %status, align 8
  %handshake_status_details = getelementptr inbounds i8, ptr %client, i64 272
  %status_details = getelementptr inbounds i8, ptr %ops, i64 32
  store ptr %handshake_status_details, ptr %status_details, align 16
  %reserved = getelementptr inbounds i8, ptr %ops, i64 8
  store ptr null, ptr %reserved, align 8
  %refs = getelementptr inbounds i8, ptr %client, i64 8
  tail call void @gpr_ref(ptr noundef nonnull %refs)
  %grpc_caller = getelementptr inbounds i8, ptr %client, i64 32
  %0 = load ptr, ptr %grpc_caller, align 8
  %call = getelementptr inbounds i8, ptr %client, i64 24
  %1 = load ptr, ptr %call, align 8
  %on_status_received = getelementptr inbounds i8, ptr %client, i64 232
  %call19 = call noundef i32 %0(ptr noundef %1, ptr noundef nonnull %ops, i64 noundef 1, ptr noundef nonnull %on_status_received)
  %cmp21.not = icmp eq i32 %call19, 0
  br i1 %cmp21.not, label %do.end25, label %if.then23

if.then23:                                        ; preds = %if.then2
  call void @gpr_assertion_failed(ptr noundef nonnull @.str, i32 noundef 335, ptr noundef nonnull @.str.34) #17
  unreachable

do.end25:                                         ; preds = %if.then2
  %incdec.ptr = getelementptr inbounds i8, ptr %ops, i64 80
  call void @llvm.memset.p0.i64(ptr noundef nonnull align 16 dereferenceable(320) %ops, i8 0, i64 320, i1 false)
  store i32 4, ptr %incdec.ptr, align 16
  %recv_initial_metadata = getelementptr inbounds i8, ptr %client, i64 96
  %data43 = getelementptr inbounds i8, ptr %ops, i64 96
  store ptr %recv_initial_metadata, ptr %data43, align 16
  %incdec.ptr45 = getelementptr inbounds i8, ptr %ops, i64 160
  br label %if.end57

if.end57:                                         ; preds = %do.end25, %do.end
  %op.0 = phi ptr [ %incdec.ptr45, %do.end25 ], [ %ops, %do.end ]
  store i32 1, ptr %op.0, align 8
  %send_buffer = getelementptr inbounds i8, ptr %client, i64 72
  %2 = load ptr, ptr %send_buffer, align 8
  %data59 = getelementptr inbounds i8, ptr %op.0, i64 16
  store ptr %2, ptr %data59, align 8
  %incdec.ptr60 = getelementptr inbounds i8, ptr %op.0, i64 80
  %sub.ptr.lhs.cast63 = ptrtoint ptr %incdec.ptr60 to i64
  %sub.ptr.rhs.cast64 = ptrtoint ptr %ops to i64
  %sub.ptr.sub65 = sub i64 %sub.ptr.lhs.cast63, %sub.ptr.rhs.cast64
  %cmp67 = icmp sgt i64 %sub.ptr.sub65, 399
  br i1 %cmp67, label %if.then69, label %do.end71

if.then69:                                        ; preds = %if.end57
  call void @gpr_assertion_failed(ptr noundef nonnull @.str, i32 noundef 351, ptr noundef nonnull @.str.33) #17
  unreachable

do.end71:                                         ; preds = %if.end57
  store i32 5, ptr %incdec.ptr60, align 8
  %recv_buffer = getelementptr inbounds i8, ptr %client, i64 80
  %data73 = getelementptr inbounds i8, ptr %op.0, i64 96
  store ptr %recv_buffer, ptr %data73, align 8
  %incdec.ptr74 = getelementptr inbounds i8, ptr %op.0, i64 160
  %sub.ptr.lhs.cast77 = ptrtoint ptr %incdec.ptr74 to i64
  %sub.ptr.sub79 = sub i64 %sub.ptr.lhs.cast77, %sub.ptr.rhs.cast64
  %sub.ptr.div80 = sdiv exact i64 %sub.ptr.sub79, 80
  %cmp81 = icmp sgt i64 %sub.ptr.sub79, 399
  br i1 %cmp81, label %if.then83, label %do.body86

if.then83:                                        ; preds = %do.end71
  call void @gpr_assertion_failed(ptr noundef nonnull @.str, i32 noundef 355, ptr noundef nonnull @.str.33) #17
  unreachable

do.body86:                                        ; preds = %do.end71
  %grpc_caller87 = getelementptr inbounds i8, ptr %client, i64 32
  %3 = load ptr, ptr %grpc_caller87, align 8
  %cmp88.not = icmp eq ptr %3, null
  br i1 %cmp88.not, label %if.then90, label %do.end92

if.then90:                                        ; preds = %do.body86
  call void @gpr_assertion_failed(ptr noundef nonnull @.str, i32 noundef 356, ptr noundef nonnull @.str.35) #17
  unreachable

do.end92:                                         ; preds = %do.body86
  %call94 = getelementptr inbounds i8, ptr %client, i64 24
  %4 = load ptr, ptr %call94, align 8
  %on_handshaker_service_resp_recv = getelementptr inbounds i8, ptr %client, i64 40
  %call101 = call noundef i32 %3(ptr noundef %4, ptr noundef nonnull %ops, i64 noundef %sub.ptr.div80, ptr noundef nonnull %on_handshaker_service_resp_recv)
  %cmp102.not = icmp eq i32 %call101, 0
  br i1 %cmp102.not, label %return, label %if.then103

if.then103:                                       ; preds = %do.end92
  call void (ptr, i32, i32, ptr, ...) @gpr_log(ptr noundef nonnull @.str, i32 noundef 360, i32 noundef 2, ptr noundef nonnull @.str.36)
  br label %return

return:                                           ; preds = %do.end92, %if.then103
  %retval.0 = phi i32 [ 7, %if.then103 ], [ 0, %do.end92 ]
  ret i32 %retval.0
}